; Function Attrs: nounwind uwtable
define internal void @__itt_marker_init_3_0(ptr noundef %0, ptr noundef readonly byval(%struct.___itt_id) align 8 captures(none) %1, ptr noundef %2, i32 noundef %3) #0 {
  %5 = load volatile i64, ptr getelementptr inbounds nuw (i8, ptr @__itt__ittapi_global, i64 32), align 8, !tbaa !3
  %6 = icmp eq i64 %5, 0
  %7 = load ptr, ptr getelementptr inbounds nuw (i8, ptr @__itt__ittapi_global, i64 136), align 8
  %8 = icmp eq ptr %7, null
  %or.cond = select i1 %6, i1 %8, i1 false
  br i1 %or.cond, label %9, label %11

9:                                                ; preds = %4
  %10 = tail call i32 @__itt_init_ittlib(ptr noundef null, i32 noundef -1)
  br label %11

11:                                               ; preds = %9, %4
  %12 = load ptr, ptr @__itt_marker_ptr__3_0, align 8, !tbaa !20
  %13 = icmp ne ptr %12, null
  %14 = icmp ne ptr %12, @__itt_marker_init_3_0
  %or.cond3 = and i1 %13, %14
  br i1 %or.cond3, label %15, label %16

15:                                               ; preds = %11
  tail call void %12(ptr noundef %0, ptr noundef nonnull byval(%struct.___itt_id) align 8 %1, ptr noundef %2, i32 noundef %3) #14
  br label %16

16:                                               ; preds = %11, %15
  ret void
}